; Function Attrs: mustprogress uwtable
define dso_local i8 @_ZN4Luau7CodeGen3X6413IrLoweringX645regOpENS0_4IrOpE(ptr noundef nonnull align 8 dereferenceable(1440) %0, i32 %1) local_unnamed_addr #0 align 2 {
  %3 = getelementptr inbounds nuw i8, ptr %0, i64 16
  %4 = load ptr, ptr %3, align 8, !tbaa !61
  %5 = getelementptr inbounds nuw i8, ptr %4, i64 24
  %6 = lshr i32 %1, 4
  %7 = zext nneg i32 %6 to i64
  %8 = load ptr, ptr %5, align 8, !tbaa !65
  %9 = getelementptr inbounds nuw %"struct.Luau::CodeGen::IrInst", ptr %8, i64 %7
  %10 = getelementptr inbounds nuw i8, ptr %9, i64 41
  %11 = load i8, ptr %10, align 1, !tbaa !68, !range !77, !noundef !78
  %12 = trunc nuw i8 %11 to i1
  br i1 %12, label %17, label %13

13:                                               ; preds = %2
  %14 = getelementptr inbounds nuw i8, ptr %9, i64 42
  %15 = load i8, ptr %14, align 2, !tbaa !79, !range !77, !noundef !78
  %16 = trunc nuw i8 %15 to i1
  br i1 %16, label %17, label %19

17:                                               ; preds = %13, %2
  %18 = getelementptr inbounds nuw i8, ptr %0, i64 32
  tail call void @_ZN4Luau7CodeGen3X6413IrRegAllocX647restoreERNS0_6IrInstEb(ptr noundef nonnull align 8 dereferenceable(256) %18, ptr noundef nonnull align 4 dereferenceable(43) %9, i1 noundef zeroext false)
  br label %19

19:                                               ; preds = %17, %13
  %20 = getelementptr inbounds nuw i8, ptr %9, i64 38
  %.sroa.06.0.copyload = load i8, ptr %20, align 2, !tbaa !51
  ret i8 %.sroa.06.0.copyload
}